target datalayout = "e-m:e-p270:32:32-p271:32:32-p272:64:64-i64:64-i128:128-f80:128-n8:16:32:64-S128"
target triple = "x86_64-pc-linux-gnu"

%struct._zval_struct = type { %union._zend_value, %union.anon, %union.anon.2 }
%union._zend_value = type { i64 }
%union.anon = type { i32 }
%union.anon.2 = type { i32 }
%struct._zend_refcounted_h = type { i32, %union.anon.3 }
%union.anon.3 = type { i32 }
%struct._zend_ini_entry = type { ptr, ptr, ptr, ptr, ptr, ptr, ptr, ptr, i32, i8, i8, i8 }

; Function Attrs: nounwind uwtable
define internal void @free_ini_entry(ptr noundef %0) #0 {
  %2 = alloca ptr, align 8
  %3 = alloca ptr, align 8
  %4 = alloca ptr, align 8
  %5 = alloca i32, align 4
  %6 = alloca i32, align 4
  %7 = alloca i32, align 4
  %8 = alloca i32, align 4
  %9 = alloca ptr, align 8
  %10 = alloca ptr, align 8
  %11 = alloca i8, align 1
  %12 = alloca ptr, align 8
  %13 = alloca i8, align 1
  %14 = alloca ptr, align 8
  %15 = alloca ptr, align 8
  store ptr %0, ptr %14, align 8
  %16 = load ptr, ptr %14, align 8
  %17 = getelementptr inbounds %struct._zval_struct, ptr %16, i32 0, i32 0
  %18 = load ptr, ptr %17, align 8
  store ptr %18, ptr %15, align 8
  %19 = load ptr, ptr %15, align 8
  %20 = getelementptr inbounds %struct._zend_ini_entry, ptr %19, i32 0, i32 0
  %21 = load ptr, ptr %20, align 8
  store ptr %21, ptr %10, align 8
  store i8 1, ptr %11, align 1
  %22 = load ptr, ptr %10, align 8
  %23 = getelementptr inbounds %struct._zend_refcounted_h, ptr %22, i32 0, i32 1
  %24 = load i32, ptr %23, align 4
  store i32 %24, ptr %6, align 4
  %25 = load i32, ptr %6, align 4
  %26 = and i32 %25, 1008
  %27 = and i32 %26, 64
  %28 = icmp ne i32 %27, 0
  br i1 %28, label %47, label %29

29:                                               ; preds = %1
  %30 = load ptr, ptr %10, align 8
  store ptr %30, ptr %3, align 8
  %31 = load ptr, ptr %3, align 8
  %32 = load i32, ptr %31, align 4
  %33 = icmp ugt i32 %32, 0
  call void @llvm.assume(i1 %33)
  %34 = load ptr, ptr %3, align 8
  %35 = load i32, ptr %34, align 4
  %36 = add i32 %35, -1
  store i32 %36, ptr %34, align 4
  %37 = icmp eq i32 %36, 0
  br i1 %37, label %38, label %46

38:                                               ; preds = %29
  %39 = load i8, ptr %11, align 1
  %40 = trunc i8 %39 to i1
  br i1 %40, label %41, label %43

41:                                               ; preds = %38
  %42 = load ptr, ptr %10, align 8
  call void @free(ptr noundef %42) #13
  br label %45

43:                                               ; preds = %38
  %44 = load ptr, ptr %10, align 8
  call void @_efree(ptr noundef %44) #13
  br label %45

45:                                               ; preds = %43, %41
  br label %46

46:                                               ; preds = %45, %29
  br label %47

47:                                               ; preds = %46, %1
  %48 = load ptr, ptr %15, align 8
  %49 = getelementptr inbounds %struct._zend_ini_entry, ptr %48, i32 0, i32 5
  %50 = load ptr, ptr %49, align 8
  %51 = icmp ne ptr %50, null
  br i1 %51, label %52, label %87

52:                                               ; preds = %47
  %53 = load ptr, ptr %15, align 8
  %54 = getelementptr inbounds %struct._zend_ini_entry, ptr %53, i32 0, i32 5
  %55 = load ptr, ptr %54, align 8
  store ptr %55, ptr %9, align 8
  %56 = load ptr, ptr %9, align 8
  %57 = getelementptr inbounds %struct._zend_refcounted_h, ptr %56, i32 0, i32 1
  %58 = load i32, ptr %57, align 4
  store i32 %58, ptr %7, align 4
  %59 = load i32, ptr %7, align 4
  %60 = and i32 %59, 1008
  %61 = and i32 %60, 64
  %62 = icmp ne i32 %61, 0
  br i1 %62, label %86, label %63

63:                                               ; preds = %52
  %64 = load ptr, ptr %9, align 8
  store ptr %64, ptr %4, align 8
  %65 = load ptr, ptr %4, align 8
  %66 = load i32, ptr %65, align 4
  %67 = icmp ugt i32 %66, 0
  call void @llvm.assume(i1 %67)
  %68 = load ptr, ptr %4, align 8
  %69 = load i32, ptr %68, align 4
  %70 = add i32 %69, -1
  store i32 %70, ptr %68, align 4
  %71 = icmp eq i32 %70, 0
  br i1 %71, label %72, label %85

72:                                               ; preds = %63
  %73 = load ptr, ptr %9, align 8
  %74 = getelementptr inbounds %struct._zend_refcounted_h, ptr %73, i32 0, i32 1
  %75 = load i32, ptr %74, align 4
  store i32 %75, ptr %8, align 4
  %76 = load i32, ptr %8, align 4
  %77 = and i32 %76, 1008
  %78 = and i32 %77, 128
  %79 = icmp ne i32 %78, 0
  br i1 %79, label %80, label %82

80:                                               ; preds = %72
  %81 = load ptr, ptr %9, align 8
  call void @free(ptr noundef %81) #13
  br label %84

82:                                               ; preds = %72
  %83 = load ptr, ptr %9, align 8
  call void @_efree(ptr noundef %83) #13
  br label %84

84:                                               ; preds = %82, %80
  br label %85

85:                                               ; preds = %84, %63
  br label %86

86:                                               ; preds = %85, %52
  br label %87

87:                                               ; preds = %86, %47
  %88 = load ptr, ptr %15, align 8
  %89 = getelementptr inbounds %struct._zend_ini_entry, ptr %88, i32 0, i32 6
  %90 = load ptr, ptr %89, align 8
  %91 = icmp ne ptr %90, null
  br i1 %91, label %92, label %122

92:                                               ; preds = %87
  %93 = load ptr, ptr %15, align 8
  %94 = getelementptr inbounds %struct._zend_ini_entry, ptr %93, i32 0, i32 6
  %95 = load ptr, ptr %94, align 8
  store ptr %95, ptr %12, align 8
  store i8 1, ptr %13, align 1
  %96 = load ptr, ptr %12, align 8
  %97 = getelementptr inbounds %struct._zend_refcounted_h, ptr %96, i32 0, i32 1
  %98 = load i32, ptr %97, align 4
  store i32 %98, ptr %5, align 4
  %99 = load i32, ptr %5, align 4
  %100 = and i32 %99, 1008
  %101 = and i32 %100, 64
  %102 = icmp ne i32 %101, 0
  br i1 %102, label %121, label %103

103:                                              ; preds = %92
  %104 = load ptr, ptr %12, align 8
  store ptr %104, ptr %2, align 8
  %105 = load ptr, ptr %2, align 8
  %106 = load i32, ptr %105, align 4
  %107 = icmp ugt i32 %106, 0
  call void @llvm.assume(i1 %107)
  %108 = load ptr, ptr %2, align 8
  %109 = load i32, ptr %108, align 4
  %110 = add i32 %109, -1
  store i32 %110, ptr %108, align 4
  %111 = icmp eq i32 %110, 0
  br i1 %111, label %112, label %120

112:                                              ; preds = %103
  %113 = load i8, ptr %13, align 1
  %114 = trunc i8 %113 to i1
  br i1 %114, label %115, label %117

115:                                              ; preds = %112
  %116 = load ptr, ptr %12, align 8
  call void @free(ptr noundef %116) #13
  br label %119

117:                                              ; preds = %112
  %118 = load ptr, ptr %12, align 8
  call void @_efree(ptr noundef %118) #13
  br label %119

119:                                              ; preds = %117, %115
  br label %120

120:                                              ; preds = %119, %103
  br label %121

121:                                              ; preds = %120, %92
  br label %122

122:                                              ; preds = %121, %87
  %123 = load ptr, ptr %15, align 8
  call void @free(ptr noundef %123) #13
  ret void
}