; Function Attrs: nounwind uwtable
define internal void @free_ini_entry(ptr nocapture noundef readonly %0) #0 {
  %2 = load ptr, ptr %0, align 8
  %3 = load ptr, ptr %2, align 8
  %4 = getelementptr inbounds i8, ptr %3, i64 4
  %5 = load i32, ptr %4, align 4
  %6 = and i32 %5, 64
  %.not = icmp eq i32 %6, 0
  br i1 %.not, label %7, label %13

7:                                                ; preds = %1
  %8 = load i32, ptr %3, align 4
  %9 = icmp ne i32 %8, 0
  tail call void @llvm.assume(i1 %9)
  %10 = add i32 %8, -1
  store i32 %10, ptr %3, align 4
  %11 = icmp eq i32 %10, 0
  br i1 %11, label %12, label %13

12:                                               ; preds = %7
  tail call void @free(ptr noundef nonnull %3) #20
  br label %13

13:                                               ; preds = %7, %12, %1
  %14 = getelementptr inbounds i8, ptr %2, i64 40
  %15 = load ptr, ptr %14, align 8
  %.not32 = icmp eq ptr %15, null
  br i1 %.not32, label %29, label %16

16:                                               ; preds = %13
  %17 = getelementptr inbounds i8, ptr %15, i64 4
  %18 = load i32, ptr %17, align 4
  %19 = and i32 %18, 64
  %.not33 = icmp eq i32 %19, 0
  br i1 %.not33, label %20, label %29

20:                                               ; preds = %16
  %21 = load i32, ptr %15, align 4
  %22 = icmp ne i32 %21, 0
  tail call void @llvm.assume(i1 %22)
  %23 = add i32 %21, -1
  store i32 %23, ptr %15, align 4
  %24 = icmp eq i32 %23, 0
  br i1 %24, label %25, label %29

25:                                               ; preds = %20
  %26 = and i32 %18, 128
  %.not34 = icmp eq i32 %26, 0
  br i1 %.not34, label %28, label %27

27:                                               ; preds = %25
  tail call void @free(ptr noundef nonnull %15) #20
  br label %29

28:                                               ; preds = %25
  tail call void @_efree(ptr noundef nonnull %15) #20
  br label %29

29:                                               ; preds = %16, %27, %28, %20, %13
  %30 = getelementptr inbounds i8, ptr %2, i64 48
  %31 = load ptr, ptr %30, align 8
  %.not35 = icmp eq ptr %31, null
  br i1 %.not35, label %42, label %32

32:                                               ; preds = %29
  %33 = getelementptr inbounds i8, ptr %31, i64 4
  %34 = load i32, ptr %33, align 4
  %35 = and i32 %34, 64
  %.not36 = icmp eq i32 %35, 0
  br i1 %.not36, label %36, label %42

36:                                               ; preds = %32
  %37 = load i32, ptr %31, align 4
  %38 = icmp ne i32 %37, 0
  tail call void @llvm.assume(i1 %38)
  %39 = add i32 %37, -1
  store i32 %39, ptr %31, align 4
  %40 = icmp eq i32 %39, 0
  br i1 %40, label %41, label %42

41:                                               ; preds = %36
  tail call void @free(ptr noundef nonnull %31) #20
  br label %42

42:                                               ; preds = %32, %41, %36, %29
  tail call void @free(ptr noundef nonnull %2) #20
  ret void
}